
a.out:     file format elf64-x86-64


Disassembly of section .init:

0000000000400b20 <_init>:
  400b20:	48 83 ec 08          	sub    $0x8,%rsp
  400b24:	48 8b 05 cd 14 20 00 	mov    0x2014cd(%rip),%rax        # 601ff8 <__gmon_start__>
  400b2b:	48 85 c0             	test   %rax,%rax
  400b2e:	74 05                	je     400b35 <_init+0x15>
  400b30:	e8 6b 00 00 00       	callq  400ba0 <__gmon_start__@plt>
  400b35:	48 83 c4 08          	add    $0x8,%rsp
  400b39:	c3                   	retq   

Disassembly of section .plt:

0000000000400b40 <.plt>:
  400b40:	ff 35 c2 14 20 00    	pushq  0x2014c2(%rip)        # 602008 <_GLOBAL_OFFSET_TABLE_+0x8>
  400b46:	ff 25 c4 14 20 00    	jmpq   *0x2014c4(%rip)        # 602010 <_GLOBAL_OFFSET_TABLE_+0x10>
  400b4c:	0f 1f 40 00          	nopl   0x0(%rax)

0000000000400b50 <_ZNSolsEd@plt>:
  400b50:	ff 25 c2 14 20 00    	jmpq   *0x2014c2(%rip)        # 602018 <_ZNSolsEd@GLIBCXX_3.4>
  400b56:	68 00 00 00 00       	pushq  $0x0
  400b5b:	e9 e0 ff ff ff       	jmpq   400b40 <.plt>

0000000000400b60 <_ZNSsaSEPKc@plt>:
  400b60:	ff 25 ba 14 20 00    	jmpq   *0x2014ba(%rip)        # 602020 <_ZNSsaSEPKc@GLIBCXX_3.4>
  400b66:	68 01 00 00 00       	pushq  $0x1
  400b6b:	e9 d0 ff ff ff       	jmpq   400b40 <.plt>

0000000000400b70 <_ZNSsC1Ev@plt>:
  400b70:	ff 25 b2 14 20 00    	jmpq   *0x2014b2(%rip)        # 602028 <_ZNSsC1Ev@GLIBCXX_3.4>
  400b76:	68 02 00 00 00       	pushq  $0x2
  400b7b:	e9 c0 ff ff ff       	jmpq   400b40 <.plt>

0000000000400b80 <_ZNSolsEi@plt>:
  400b80:	ff 25 aa 14 20 00    	jmpq   *0x2014aa(%rip)        # 602030 <_ZNSolsEi@GLIBCXX_3.4>
  400b86:	68 03 00 00 00       	pushq  $0x3
  400b8b:	e9 b0 ff ff ff       	jmpq   400b40 <.plt>

0000000000400b90 <_ZNSsC1EPKcmRKSaIcE@plt>:
  400b90:	ff 25 a2 14 20 00    	jmpq   *0x2014a2(%rip)        # 602038 <_ZNSsC1EPKcmRKSaIcE@GLIBCXX_3.4>
  400b96:	68 04 00 00 00       	pushq  $0x4
  400b9b:	e9 a0 ff ff ff       	jmpq   400b40 <.plt>

0000000000400ba0 <__gmon_start__@plt>:
  400ba0:	ff 25 9a 14 20 00    	jmpq   *0x20149a(%rip)        # 602040 <__gmon_start__>
  400ba6:	68 05 00 00 00       	pushq  $0x5
  400bab:	e9 90 ff ff ff       	jmpq   400b40 <.plt>

0000000000400bb0 <_ZNSt8ios_base4InitC1Ev@plt>:
  400bb0:	ff 25 92 14 20 00    	jmpq   *0x201492(%rip)        # 602048 <_ZNSt8ios_base4InitC1Ev@GLIBCXX_3.4>
  400bb6:	68 06 00 00 00       	pushq  $0x6
  400bbb:	e9 80 ff ff ff       	jmpq   400b40 <.plt>

0000000000400bc0 <__libc_start_main@plt>:
  400bc0:	ff 25 8a 14 20 00    	jmpq   *0x20148a(%rip)        # 602050 <__libc_start_main@GLIBC_2.2.5>
  400bc6:	68 07 00 00 00       	pushq  $0x7
  400bcb:	e9 70 ff ff ff       	jmpq   400b40 <.plt>

0000000000400bd0 <__cxa_atexit@plt>:
  400bd0:	ff 25 82 14 20 00    	jmpq   *0x201482(%rip)        # 602058 <__cxa_atexit@GLIBC_2.2.5>
  400bd6:	68 08 00 00 00       	pushq  $0x8
  400bdb:	e9 60 ff ff ff       	jmpq   400b40 <.plt>

0000000000400be0 <_ZStlsISt11char_traitsIcEERSt13basic_ostreamIcT_ES5_c@plt>:
  400be0:	ff 25 7a 14 20 00    	jmpq   *0x20147a(%rip)        # 602060 <_ZStlsISt11char_traitsIcEERSt13basic_ostreamIcT_ES5_c@GLIBCXX_3.4>
  400be6:	68 09 00 00 00       	pushq  $0x9
  400beb:	e9 50 ff ff ff       	jmpq   400b40 <.plt>

0000000000400bf0 <_ZNKSs6lengthEv@plt>:
  400bf0:	ff 25 72 14 20 00    	jmpq   *0x201472(%rip)        # 602068 <_ZNKSs6lengthEv@GLIBCXX_3.4>
  400bf6:	68 0a 00 00 00       	pushq  $0xa
  400bfb:	e9 40 ff ff ff       	jmpq   400b40 <.plt>

0000000000400c00 <_ZNSt8ios_base4InitD1Ev@plt>:
  400c00:	ff 25 6a 14 20 00    	jmpq   *0x20146a(%rip)        # 602070 <_ZNSt8ios_base4InitD1Ev@GLIBCXX_3.4>
  400c06:	68 0b 00 00 00       	pushq  $0xb
  400c0b:	e9 30 ff ff ff       	jmpq   400b40 <.plt>

0000000000400c10 <_ZnamRKSt9nothrow_t@plt>:
  400c10:	ff 25 62 14 20 00    	jmpq   *0x201462(%rip)        # 602078 <_ZnamRKSt9nothrow_t@GLIBCXX_3.4>
  400c16:	68 0c 00 00 00       	pushq  $0xc
  400c1b:	e9 20 ff ff ff       	jmpq   400b40 <.plt>

0000000000400c20 <_ZStlsISt11char_traitsIcEERSt13basic_ostreamIcT_ES5_PKc@plt>:
  400c20:	ff 25 5a 14 20 00    	jmpq   *0x20145a(%rip)        # 602080 <_ZStlsISt11char_traitsIcEERSt13basic_ostreamIcT_ES5_PKc@GLIBCXX_3.4>
  400c26:	68 0d 00 00 00       	pushq  $0xd
  400c2b:	e9 10 ff ff ff       	jmpq   400b40 <.plt>

0000000000400c30 <_ZNSsD1Ev@plt>:
  400c30:	ff 25 52 14 20 00    	jmpq   *0x201452(%rip)        # 602088 <_ZNSsD1Ev@GLIBCXX_3.4>
  400c36:	68 0e 00 00 00       	pushq  $0xe
  400c3b:	e9 00 ff ff ff       	jmpq   400b40 <.plt>

0000000000400c40 <_ZNSolsEPKv@plt>:
  400c40:	ff 25 4a 14 20 00    	jmpq   *0x20144a(%rip)        # 602090 <_ZNSolsEPKv@GLIBCXX_3.4>
  400c46:	68 0f 00 00 00       	pushq  $0xf
  400c4b:	e9 f0 fe ff ff       	jmpq   400b40 <.plt>

0000000000400c50 <_ZNSolsEm@plt>:
  400c50:	ff 25 42 14 20 00    	jmpq   *0x201442(%rip)        # 602098 <_ZNSolsEm@GLIBCXX_3.4>
  400c56:	68 10 00 00 00       	pushq  $0x10
  400c5b:	e9 e0 fe ff ff       	jmpq   400b40 <.plt>

0000000000400c60 <_ZStlsIcSt11char_traitsIcESaIcEERSt13basic_ostreamIT_T0_ES7_RKSbIS4_S5_T1_E@plt>:
  400c60:	ff 25 3a 14 20 00    	jmpq   *0x20143a(%rip)        # 6020a0 <_ZStlsIcSt11char_traitsIcESaIcEERSt13basic_ostreamIT_T0_ES7_RKSbIS4_S5_T1_E@GLIBCXX_3.4>
  400c66:	68 11 00 00 00       	pushq  $0x11
  400c6b:	e9 d0 fe ff ff       	jmpq   400b40 <.plt>

0000000000400c70 <_ZNSaIcED1Ev@plt>:
  400c70:	ff 25 32 14 20 00    	jmpq   *0x201432(%rip)        # 6020a8 <_ZNSaIcED1Ev@GLIBCXX_3.4>
  400c76:	68 12 00 00 00       	pushq  $0x12
  400c7b:	e9 c0 fe ff ff       	jmpq   400b40 <.plt>

0000000000400c80 <_ZNSolsEPFRSoS_E@plt>:
  400c80:	ff 25 2a 14 20 00    	jmpq   *0x20142a(%rip)        # 6020b0 <_ZNSolsEPFRSoS_E@GLIBCXX_3.4>
  400c86:	68 13 00 00 00       	pushq  $0x13
  400c8b:	e9 b0 fe ff ff       	jmpq   400b40 <.plt>

0000000000400c90 <_ZSt4endlIcSt11char_traitsIcEERSt13basic_ostreamIT_T0_ES6_@plt>:
  400c90:	ff 25 22 14 20 00    	jmpq   *0x201422(%rip)        # 6020b8 <_ZSt4endlIcSt11char_traitsIcEERSt13basic_ostreamIT_T0_ES6_@GLIBCXX_3.4>
  400c96:	68 14 00 00 00       	pushq  $0x14
  400c9b:	e9 a0 fe ff ff       	jmpq   400b40 <.plt>

0000000000400ca0 <_ZNSaIcEC1Ev@plt>:
  400ca0:	ff 25 1a 14 20 00    	jmpq   *0x20141a(%rip)        # 6020c0 <_ZNSaIcEC1Ev@GLIBCXX_3.4>
  400ca6:	68 15 00 00 00       	pushq  $0x15
  400cab:	e9 90 fe ff ff       	jmpq   400b40 <.plt>

0000000000400cb0 <__gxx_personality_v0@plt>:
  400cb0:	ff 25 12 14 20 00    	jmpq   *0x201412(%rip)        # 6020c8 <__gxx_personality_v0@CXXABI_1.3>
  400cb6:	68 16 00 00 00       	pushq  $0x16
  400cbb:	e9 80 fe ff ff       	jmpq   400b40 <.plt>

0000000000400cc0 <_Unwind_Resume@plt>:
  400cc0:	ff 25 0a 14 20 00    	jmpq   *0x20140a(%rip)        # 6020d0 <_Unwind_Resume@GCC_3.0>
  400cc6:	68 17 00 00 00       	pushq  $0x17
  400ccb:	e9 70 fe ff ff       	jmpq   400b40 <.plt>

Disassembly of section .text:

0000000000400cd0 <_start>:
  400cd0:	31 ed                	xor    %ebp,%ebp
  400cd2:	49 89 d1             	mov    %rdx,%r9
  400cd5:	5e                   	pop    %rsi
  400cd6:	48 89 e2             	mov    %rsp,%rdx
  400cd9:	48 83 e4 f0          	and    $0xfffffffffffffff0,%rsp
  400cdd:	50                   	push   %rax
  400cde:	54                   	push   %rsp
  400cdf:	49 c7 c0 90 15 40 00 	mov    $0x401590,%r8
  400ce6:	48 c7 c1 20 15 40 00 	mov    $0x401520,%rcx
  400ced:	48 c7 c7 13 14 40 00 	mov    $0x401413,%rdi
  400cf4:	e8 c7 fe ff ff       	callq  400bc0 <__libc_start_main@plt>
  400cf9:	f4                   	hlt    
  400cfa:	66 0f 1f 44 00 00    	nopw   0x0(%rax,%rax,1)

0000000000400d00 <deregister_tm_clones>:
  400d00:	55                   	push   %rbp
  400d01:	b8 e0 20 60 00       	mov    $0x6020e0,%eax
  400d06:	48 3d e0 20 60 00    	cmp    $0x6020e0,%rax
  400d0c:	48 89 e5             	mov    %rsp,%rbp
  400d0f:	74 17                	je     400d28 <deregister_tm_clones+0x28>
  400d11:	b8 00 00 00 00       	mov    $0x0,%eax
  400d16:	48 85 c0             	test   %rax,%rax
  400d19:	74 0d                	je     400d28 <deregister_tm_clones+0x28>
  400d1b:	5d                   	pop    %rbp
  400d1c:	bf e0 20 60 00       	mov    $0x6020e0,%edi
  400d21:	ff e0                	jmpq   *%rax
  400d23:	0f 1f 44 00 00       	nopl   0x0(%rax,%rax,1)
  400d28:	5d                   	pop    %rbp
  400d29:	c3                   	retq   
  400d2a:	66 0f 1f 44 00 00    	nopw   0x0(%rax,%rax,1)

0000000000400d30 <register_tm_clones>:
  400d30:	be e0 20 60 00       	mov    $0x6020e0,%esi
  400d35:	55                   	push   %rbp
  400d36:	48 81 ee e0 20 60 00 	sub    $0x6020e0,%rsi
  400d3d:	48 89 e5             	mov    %rsp,%rbp
  400d40:	48 c1 fe 03          	sar    $0x3,%rsi
  400d44:	48 89 f0             	mov    %rsi,%rax
  400d47:	48 c1 e8 3f          	shr    $0x3f,%rax
  400d4b:	48 01 c6             	add    %rax,%rsi
  400d4e:	48 d1 fe             	sar    %rsi
  400d51:	74 15                	je     400d68 <register_tm_clones+0x38>
  400d53:	b8 00 00 00 00       	mov    $0x0,%eax
  400d58:	48 85 c0             	test   %rax,%rax
  400d5b:	74 0b                	je     400d68 <register_tm_clones+0x38>
  400d5d:	5d                   	pop    %rbp
  400d5e:	bf e0 20 60 00       	mov    $0x6020e0,%edi
  400d63:	ff e0                	jmpq   *%rax
  400d65:	0f 1f 00             	nopl   (%rax)
  400d68:	5d                   	pop    %rbp
  400d69:	c3                   	retq   
  400d6a:	66 0f 1f 44 00 00    	nopw   0x0(%rax,%rax,1)

0000000000400d70 <__do_global_dtors_aux>:
  400d70:	80 3d 7a 14 20 00 00 	cmpb   $0x0,0x20147a(%rip)        # 6021f1 <completed.6941>
  400d77:	75 17                	jne    400d90 <__do_global_dtors_aux+0x20>
  400d79:	55                   	push   %rbp
  400d7a:	48 89 e5             	mov    %rsp,%rbp
  400d7d:	e8 7e ff ff ff       	callq  400d00 <deregister_tm_clones>
  400d82:	c6 05 68 14 20 00 01 	movb   $0x1,0x201468(%rip)        # 6021f1 <completed.6941>
  400d89:	5d                   	pop    %rbp
  400d8a:	c3                   	retq   
  400d8b:	0f 1f 44 00 00       	nopl   0x0(%rax,%rax,1)
  400d90:	f3 c3                	repz retq 
  400d92:	0f 1f 40 00          	nopl   0x0(%rax)
  400d96:	66 2e 0f 1f 84 00 00 	nopw   %cs:0x0(%rax,%rax,1)
  400d9d:	00 00 00 

0000000000400da0 <frame_dummy>:
  400da0:	55                   	push   %rbp
  400da1:	48 89 e5             	mov    %rsp,%rbp
  400da4:	5d                   	pop    %rbp
  400da5:	eb 89                	jmp    400d30 <register_tm_clones>

0000000000400da7 <_Z10print_addrm>:
#include <stdint.h>
#include <string>

typedef uint64_t Taddr;

void print_addr(Taddr addr) {
  400da7:	55                   	push   %rbp
  400da8:	48 89 e5             	mov    %rsp,%rbp
  400dab:	48 83 ec 20          	sub    $0x20,%rsp
  400daf:	48 89 7d e8          	mov    %rdi,-0x18(%rbp)
  for (int i = 0; i < 16; i++) {
  400db3:	c7 45 fc 00 00 00 00 	movl   $0x0,-0x4(%rbp)
  400dba:	83 7d fc 0f          	cmpl   $0xf,-0x4(%rbp)
  400dbe:	7f 25                	jg     400de5 <_Z10print_addrm+0x3e>
    std::cout << *(char*)(addr+i);
  400dc0:	8b 45 fc             	mov    -0x4(%rbp),%eax
  400dc3:	48 63 d0             	movslq %eax,%rdx
  400dc6:	48 8b 45 e8          	mov    -0x18(%rbp),%rax
  400dca:	48 01 d0             	add    %rdx,%rax
  400dcd:	0f b6 00             	movzbl (%rax),%eax
  400dd0:	0f be c0             	movsbl %al,%eax
  400dd3:	89 c6                	mov    %eax,%esi
  400dd5:	bf e0 20 60 00       	mov    $0x6020e0,%edi
  400dda:	e8 01 fe ff ff       	callq  400be0 <_ZStlsISt11char_traitsIcEERSt13basic_ostreamIcT_ES5_c@plt>
  for (int i = 0; i < 16; i++) {
  400ddf:	83 45 fc 01          	addl   $0x1,-0x4(%rbp)
  400de3:	eb d5                	jmp    400dba <_Z10print_addrm+0x13>
  }
  std::cout << std::endl;
  400de5:	be 90 0c 40 00       	mov    $0x400c90,%esi
  400dea:	bf e0 20 60 00       	mov    $0x6020e0,%edi
  400def:	e8 8c fe ff ff       	callq  400c80 <_ZNSolsEPFRSoS_E@plt>
}
  400df4:	90                   	nop
  400df5:	c9                   	leaveq 
  400df6:	c3                   	retq   

0000000000400df7 <_Z5test1v>:

void test1() {
  400df7:	55                   	push   %rbp
  400df8:	48 89 e5             	mov    %rsp,%rbp
  400dfb:	48 83 ec 20          	sub    $0x20,%rsp
  Taddr addr1 = (Taddr)new(std::nothrow) char[16];
  400dff:	be f0 21 60 00       	mov    $0x6021f0,%esi
  400e04:	bf 10 00 00 00       	mov    $0x10,%edi
  400e09:	e8 02 fe ff ff       	callq  400c10 <_ZnamRKSt9nothrow_t@plt>
  400e0e:	48 89 45 f0          	mov    %rax,-0x10(%rbp)
  for (int i = 0; i < 16; i++) {
  400e12:	c7 45 fc 00 00 00 00 	movl   $0x0,-0x4(%rbp)
  400e19:	83 7d fc 0f          	cmpl   $0xf,-0x4(%rbp)
  400e1d:	7f 1d                	jg     400e3c <_Z5test1v+0x45>
    *(char*)(addr1 + i) = 'a' + i;
  400e1f:	8b 45 fc             	mov    -0x4(%rbp),%eax
  400e22:	8d 48 61             	lea    0x61(%rax),%ecx
  400e25:	8b 45 fc             	mov    -0x4(%rbp),%eax
  400e28:	48 63 d0             	movslq %eax,%rdx
  400e2b:	48 8b 45 f0          	mov    -0x10(%rbp),%rax
  400e2f:	48 01 d0             	add    %rdx,%rax
  400e32:	89 ca                	mov    %ecx,%edx
  400e34:	88 10                	mov    %dl,(%rax)
  for (int i = 0; i < 16; i++) {
  400e36:	83 45 fc 01          	addl   $0x1,-0x4(%rbp)
  400e3a:	eb dd                	jmp    400e19 <_Z5test1v+0x22>
  }
  std::cout << "addr1=" << (void*)addr1 << ", val1:"; 
  400e3c:	be b1 15 40 00       	mov    $0x4015b1,%esi
  400e41:	bf e0 20 60 00       	mov    $0x6020e0,%edi
  400e46:	e8 d5 fd ff ff       	callq  400c20 <_ZStlsISt11char_traitsIcEERSt13basic_ostreamIcT_ES5_PKc@plt>
  400e4b:	48 89 c2             	mov    %rax,%rdx
  400e4e:	48 8b 45 f0          	mov    -0x10(%rbp),%rax
  400e52:	48 89 c6             	mov    %rax,%rsi
  400e55:	48 89 d7             	mov    %rdx,%rdi
  400e58:	e8 e3 fd ff ff       	callq  400c40 <_ZNSolsEPKv@plt>
  400e5d:	be b8 15 40 00       	mov    $0x4015b8,%esi
  400e62:	48 89 c7             	mov    %rax,%rdi
  400e65:	e8 b6 fd ff ff       	callq  400c20 <_ZStlsISt11char_traitsIcEERSt13basic_ostreamIcT_ES5_PKc@plt>
  print_addr(addr1);
  400e6a:	48 8b 45 f0          	mov    -0x10(%rbp),%rax
  400e6e:	48 89 c7             	mov    %rax,%rdi
  400e71:	e8 31 ff ff ff       	callq  400da7 <_Z10print_addrm>
  
  Taddr addr2 = (Taddr)new(std::nothrow) char[16];
  400e76:	be f0 21 60 00       	mov    $0x6021f0,%esi
  400e7b:	bf 10 00 00 00       	mov    $0x10,%edi
  400e80:	e8 8b fd ff ff       	callq  400c10 <_ZnamRKSt9nothrow_t@plt>
  400e85:	48 89 45 e8          	mov    %rax,-0x18(%rbp)
  for (int i = 0; i < 16; i++) {
  400e89:	c7 45 f8 00 00 00 00 	movl   $0x0,-0x8(%rbp)
  400e90:	83 7d f8 0f          	cmpl   $0xf,-0x8(%rbp)
  400e94:	7f 1d                	jg     400eb3 <_Z5test1v+0xbc>
    *(char*)(addr2 + i) = 'A' + i;
  400e96:	8b 45 f8             	mov    -0x8(%rbp),%eax
  400e99:	8d 48 41             	lea    0x41(%rax),%ecx
  400e9c:	8b 45 f8             	mov    -0x8(%rbp),%eax
  400e9f:	48 63 d0             	movslq %eax,%rdx
  400ea2:	48 8b 45 e8          	mov    -0x18(%rbp),%rax
  400ea6:	48 01 d0             	add    %rdx,%rax
  400ea9:	89 ca                	mov    %ecx,%edx
  400eab:	88 10                	mov    %dl,(%rax)
  for (int i = 0; i < 16; i++) {
  400ead:	83 45 f8 01          	addl   $0x1,-0x8(%rbp)
  400eb1:	eb dd                	jmp    400e90 <_Z5test1v+0x99>
  }
  std::cout << "addr2=" << (void*)addr2 << ", val2:"; 
  400eb3:	be c0 15 40 00       	mov    $0x4015c0,%esi
  400eb8:	bf e0 20 60 00       	mov    $0x6020e0,%edi
  400ebd:	e8 5e fd ff ff       	callq  400c20 <_ZStlsISt11char_traitsIcEERSt13basic_ostreamIcT_ES5_PKc@plt>
  400ec2:	48 89 c2             	mov    %rax,%rdx
  400ec5:	48 8b 45 e8          	mov    -0x18(%rbp),%rax
  400ec9:	48 89 c6             	mov    %rax,%rsi
  400ecc:	48 89 d7             	mov    %rdx,%rdi
  400ecf:	e8 6c fd ff ff       	callq  400c40 <_ZNSolsEPKv@plt>
  400ed4:	be c7 15 40 00       	mov    $0x4015c7,%esi
  400ed9:	48 89 c7             	mov    %rax,%rdi
  400edc:	e8 3f fd ff ff       	callq  400c20 <_ZStlsISt11char_traitsIcEERSt13basic_ostreamIcT_ES5_PKc@plt>
  print_addr(addr2);
  400ee1:	48 8b 45 e8          	mov    -0x18(%rbp),%rax
  400ee5:	48 89 c7             	mov    %rax,%rdi
  400ee8:	e8 ba fe ff ff       	callq  400da7 <_Z10print_addrm>

  Taddr* addr_p = (Taddr*)addr2;
  400eed:	48 8b 45 e8          	mov    -0x18(%rbp),%rax
  400ef1:	48 89 45 e0          	mov    %rax,-0x20(%rbp)
  std::cout << "#1 addr_p=" << addr_p << ", *addr_p=" << *addr_p << std::endl;
  400ef5:	be cf 15 40 00       	mov    $0x4015cf,%esi
  400efa:	bf e0 20 60 00       	mov    $0x6020e0,%edi
  400eff:	e8 1c fd ff ff       	callq  400c20 <_ZStlsISt11char_traitsIcEERSt13basic_ostreamIcT_ES5_PKc@plt>
  400f04:	48 89 c2             	mov    %rax,%rdx
  400f07:	48 8b 45 e0          	mov    -0x20(%rbp),%rax
  400f0b:	48 89 c6             	mov    %rax,%rsi
  400f0e:	48 89 d7             	mov    %rdx,%rdi
  400f11:	e8 2a fd ff ff       	callq  400c40 <_ZNSolsEPKv@plt>
  400f16:	be da 15 40 00       	mov    $0x4015da,%esi
  400f1b:	48 89 c7             	mov    %rax,%rdi
  400f1e:	e8 fd fc ff ff       	callq  400c20 <_ZStlsISt11char_traitsIcEERSt13basic_ostreamIcT_ES5_PKc@plt>
  400f23:	48 89 c2             	mov    %rax,%rdx
  400f26:	48 8b 45 e0          	mov    -0x20(%rbp),%rax
  400f2a:	48 8b 00             	mov    (%rax),%rax
  400f2d:	48 89 c6             	mov    %rax,%rsi
  400f30:	48 89 d7             	mov    %rdx,%rdi
  400f33:	e8 18 fd ff ff       	callq  400c50 <_ZNSolsEm@plt>
  400f38:	be 90 0c 40 00       	mov    $0x400c90,%esi
  400f3d:	48 89 c7             	mov    %rax,%rdi
  400f40:	e8 3b fd ff ff       	callq  400c80 <_ZNSolsEPFRSoS_E@plt>

  *addr_p = addr1;
  400f45:	48 8b 45 e0          	mov    -0x20(%rbp),%rax
  400f49:	48 8b 55 f0          	mov    -0x10(%rbp),%rdx
  400f4d:	48 89 10             	mov    %rdx,(%rax)
  std::cout << "#2 addr_p=" << addr_p << ", *addr_p=" << *addr_p << std::endl;
  400f50:	be e5 15 40 00       	mov    $0x4015e5,%esi
  400f55:	bf e0 20 60 00       	mov    $0x6020e0,%edi
  400f5a:	e8 c1 fc ff ff       	callq  400c20 <_ZStlsISt11char_traitsIcEERSt13basic_ostreamIcT_ES5_PKc@plt>
  400f5f:	48 89 c2             	mov    %rax,%rdx
  400f62:	48 8b 45 e0          	mov    -0x20(%rbp),%rax
  400f66:	48 89 c6             	mov    %rax,%rsi
  400f69:	48 89 d7             	mov    %rdx,%rdi
  400f6c:	e8 cf fc ff ff       	callq  400c40 <_ZNSolsEPKv@plt>
  400f71:	be da 15 40 00       	mov    $0x4015da,%esi
  400f76:	48 89 c7             	mov    %rax,%rdi
  400f79:	e8 a2 fc ff ff       	callq  400c20 <_ZStlsISt11char_traitsIcEERSt13basic_ostreamIcT_ES5_PKc@plt>
  400f7e:	48 89 c2             	mov    %rax,%rdx
  400f81:	48 8b 45 e0          	mov    -0x20(%rbp),%rax
  400f85:	48 8b 00             	mov    (%rax),%rax
  400f88:	48 89 c6             	mov    %rax,%rsi
  400f8b:	48 89 d7             	mov    %rdx,%rdi
  400f8e:	e8 bd fc ff ff       	callq  400c50 <_ZNSolsEm@plt>
  400f93:	be 90 0c 40 00       	mov    $0x400c90,%esi
  400f98:	48 89 c7             	mov    %rax,%rdi
  400f9b:	e8 e0 fc ff ff       	callq  400c80 <_ZNSolsEPFRSoS_E@plt>

  std::cout << "get addr1=";
  400fa0:	be f0 15 40 00       	mov    $0x4015f0,%esi
  400fa5:	bf e0 20 60 00       	mov    $0x6020e0,%edi
  400faa:	e8 71 fc ff ff       	callq  400c20 <_ZStlsISt11char_traitsIcEERSt13basic_ostreamIcT_ES5_PKc@plt>
  print_addr(*addr_p);
  400faf:	48 8b 45 e0          	mov    -0x20(%rbp),%rax
  400fb3:	48 8b 00             	mov    (%rax),%rax
  400fb6:	48 89 c7             	mov    %rax,%rdi
  400fb9:	e8 e9 fd ff ff       	callq  400da7 <_Z10print_addrm>
}
  400fbe:	90                   	nop
  400fbf:	c9                   	leaveq 
  400fc0:	c3                   	retq   

0000000000400fc1 <_Z5test2v>:
    void print() {
      std::cout << "class T2" << std::endl;
    }
};

void test2 () {
  400fc1:	55                   	push   %rbp
  400fc2:	48 89 e5             	mov    %rsp,%rbp
  400fc5:	53                   	push   %rbx
  400fc6:	48 83 ec 78          	sub    $0x78,%rsp
  T2 t2;
  400fca:	48 8d 45 a0          	lea    -0x60(%rbp),%rax
  400fce:	48 89 c7             	mov    %rax,%rdi
  400fd1:	e8 22 05 00 00       	callq  4014f8 <_ZN2T2C1Ev>
  std::cout << "T2 size=" << sizeof(T2) << std::endl;
  400fd6:	be 09 16 40 00       	mov    $0x401609,%esi
  400fdb:	bf e0 20 60 00       	mov    $0x6020e0,%edi
  400fe0:	e8 3b fc ff ff       	callq  400c20 <_ZStlsISt11char_traitsIcEERSt13basic_ostreamIcT_ES5_PKc@plt>
  400fe5:	be 20 00 00 00       	mov    $0x20,%esi
  400fea:	48 89 c7             	mov    %rax,%rdi
  400fed:	e8 5e fc ff ff       	callq  400c50 <_ZNSolsEm@plt>
  400ff2:	be 90 0c 40 00       	mov    $0x400c90,%esi
  400ff7:	48 89 c7             	mov    %rax,%rdi
  400ffa:	e8 81 fc ff ff       	callq  400c80 <_ZNSolsEPFRSoS_E@plt>

  t2.a = 123;
  400fff:	48 c7 45 a0 7b 00 00 	movq   $0x7b,-0x60(%rbp)
  401006:	00 
  t2.b = 'b';
  401007:	c6 45 a8 62          	movb   $0x62,-0x58(%rbp)
  t2.c = "ABC";
  40100b:	48 8d 45 a0          	lea    -0x60(%rbp),%rax
  40100f:	48 83 c0 10          	add    $0x10,%rax
  401013:	be 12 16 40 00       	mov    $0x401612,%esi
  401018:	48 89 c7             	mov    %rax,%rdi
  40101b:	e8 40 fb ff ff       	callq  400b60 <_ZNSsaSEPKc@plt>
  t2.d = 7.89;
  401020:	f2 0f 10 05 58 06 00 	movsd  0x658(%rip),%xmm0        # 401680 <_ZStL19piecewise_construct+0xd0>
  401027:	00 
  401028:	f2 0f 11 45 b8       	movsd  %xmm0,-0x48(%rbp)

  std::cout << "t2 size=" << sizeof(t2) << std::endl;
  40102d:	be 16 16 40 00       	mov    $0x401616,%esi
  401032:	bf e0 20 60 00       	mov    $0x6020e0,%edi
  401037:	e8 e4 fb ff ff       	callq  400c20 <_ZStlsISt11char_traitsIcEERSt13basic_ostreamIcT_ES5_PKc@plt>
  40103c:	be 20 00 00 00       	mov    $0x20,%esi
  401041:	48 89 c7             	mov    %rax,%rdi
  401044:	e8 07 fc ff ff       	callq  400c50 <_ZNSolsEm@plt>
  401049:	be 90 0c 40 00       	mov    $0x400c90,%esi
  40104e:	48 89 c7             	mov    %rax,%rdi
  401051:	e8 2a fc ff ff       	callq  400c80 <_ZNSolsEPFRSoS_E@plt>

  void* p = &t2;
  401056:	48 8d 45 a0          	lea    -0x60(%rbp),%rax
  40105a:	48 89 45 e0          	mov    %rax,-0x20(%rbp)
  std::cout << "t2 p=" << (void *)p << std::endl;
  40105e:	be 1f 16 40 00       	mov    $0x40161f,%esi
  401063:	bf e0 20 60 00       	mov    $0x6020e0,%edi
  401068:	e8 b3 fb ff ff       	callq  400c20 <_ZStlsISt11char_traitsIcEERSt13basic_ostreamIcT_ES5_PKc@plt>
  40106d:	48 89 c2             	mov    %rax,%rdx
  401070:	48 8b 45 e0          	mov    -0x20(%rbp),%rax
  401074:	48 89 c6             	mov    %rax,%rsi
  401077:	48 89 d7             	mov    %rdx,%rdi
  40107a:	e8 c1 fb ff ff       	callq  400c40 <_ZNSolsEPKv@plt>
  40107f:	be 90 0c 40 00       	mov    $0x400c90,%esi
  401084:	48 89 c7             	mov    %rax,%rdi
  401087:	e8 f4 fb ff ff       	callq  400c80 <_ZNSolsEPFRSoS_E@plt>
  std::cout << "p=" << (void*)((int*)p+1) <<  ",a=" << *((int*)p+1) << std::endl;
  40108c:	be 25 16 40 00       	mov    $0x401625,%esi
  401091:	bf e0 20 60 00       	mov    $0x6020e0,%edi
  401096:	e8 85 fb ff ff       	callq  400c20 <_ZStlsISt11char_traitsIcEERSt13basic_ostreamIcT_ES5_PKc@plt>
  40109b:	48 89 c2             	mov    %rax,%rdx
  40109e:	48 8b 45 e0          	mov    -0x20(%rbp),%rax
  4010a2:	48 83 c0 04          	add    $0x4,%rax
  4010a6:	48 89 c6             	mov    %rax,%rsi
  4010a9:	48 89 d7             	mov    %rdx,%rdi
  4010ac:	e8 8f fb ff ff       	callq  400c40 <_ZNSolsEPKv@plt>
  4010b1:	be 28 16 40 00       	mov    $0x401628,%esi
  4010b6:	48 89 c7             	mov    %rax,%rdi
  4010b9:	e8 62 fb ff ff       	callq  400c20 <_ZStlsISt11char_traitsIcEERSt13basic_ostreamIcT_ES5_PKc@plt>
  4010be:	48 89 c2             	mov    %rax,%rdx
  4010c1:	48 8b 45 e0          	mov    -0x20(%rbp),%rax
  4010c5:	48 83 c0 04          	add    $0x4,%rax
  4010c9:	8b 00                	mov    (%rax),%eax
  4010cb:	89 c6                	mov    %eax,%esi
  4010cd:	48 89 d7             	mov    %rdx,%rdi
  4010d0:	e8 ab fa ff ff       	callq  400b80 <_ZNSolsEi@plt>
  4010d5:	be 90 0c 40 00       	mov    $0x400c90,%esi
  4010da:	48 89 c7             	mov    %rax,%rdi
  4010dd:	e8 9e fb ff ff       	callq  400c80 <_ZNSolsEPFRSoS_E@plt>
  std::cout << "p=" << (void*)((char*)p+8) <<  ",b=" << *((char*)p+8) << std::endl;
  4010e2:	be 25 16 40 00       	mov    $0x401625,%esi
  4010e7:	bf e0 20 60 00       	mov    $0x6020e0,%edi
  4010ec:	e8 2f fb ff ff       	callq  400c20 <_ZStlsISt11char_traitsIcEERSt13basic_ostreamIcT_ES5_PKc@plt>
  4010f1:	48 89 c2             	mov    %rax,%rdx
  4010f4:	48 8b 45 e0          	mov    -0x20(%rbp),%rax
  4010f8:	48 83 c0 08          	add    $0x8,%rax
  4010fc:	48 89 c6             	mov    %rax,%rsi
  4010ff:	48 89 d7             	mov    %rdx,%rdi
  401102:	e8 39 fb ff ff       	callq  400c40 <_ZNSolsEPKv@plt>
  401107:	be 2c 16 40 00       	mov    $0x40162c,%esi
  40110c:	48 89 c7             	mov    %rax,%rdi
  40110f:	e8 0c fb ff ff       	callq  400c20 <_ZStlsISt11char_traitsIcEERSt13basic_ostreamIcT_ES5_PKc@plt>
  401114:	48 89 c2             	mov    %rax,%rdx
  401117:	48 8b 45 e0          	mov    -0x20(%rbp),%rax
  40111b:	48 83 c0 08          	add    $0x8,%rax
  40111f:	0f b6 00             	movzbl (%rax),%eax
  401122:	0f be c0             	movsbl %al,%eax
  401125:	89 c6                	mov    %eax,%esi
  401127:	48 89 d7             	mov    %rdx,%rdi
  40112a:	e8 b1 fa ff ff       	callq  400be0 <_ZStlsISt11char_traitsIcEERSt13basic_ostreamIcT_ES5_c@plt>
  40112f:	be 90 0c 40 00       	mov    $0x400c90,%esi
  401134:	48 89 c7             	mov    %rax,%rdi
  401137:	e8 44 fb ff ff       	callq  400c80 <_ZNSolsEPFRSoS_E@plt>
  void* p_str = ((char*)p)+16;
  40113c:	48 8b 45 e0          	mov    -0x20(%rbp),%rax
  401140:	48 83 c0 10          	add    $0x10,%rax
  401144:	48 89 45 98          	mov    %rax,-0x68(%rbp)
  uint64_t p_int = *((uint64_t*)(p_str));
  401148:	48 8b 45 98          	mov    -0x68(%rbp),%rax
  40114c:	48 8b 00             	mov    (%rax),%rax
  40114f:	48 89 45 d8          	mov    %rax,-0x28(%rbp)
  std::cout << "p_str(uint64_t)=" << (uint64_t)p_str << ",(void*)=" << (void*)p_str << std::endl; 
  401153:	be 30 16 40 00       	mov    $0x401630,%esi
  401158:	bf e0 20 60 00       	mov    $0x6020e0,%edi
  40115d:	e8 be fa ff ff       	callq  400c20 <_ZStlsISt11char_traitsIcEERSt13basic_ostreamIcT_ES5_PKc@plt>
  401162:	48 89 c2             	mov    %rax,%rdx
  401165:	48 8b 45 98          	mov    -0x68(%rbp),%rax
  401169:	48 89 c6             	mov    %rax,%rsi
  40116c:	48 89 d7             	mov    %rdx,%rdi
  40116f:	e8 dc fa ff ff       	callq  400c50 <_ZNSolsEm@plt>
  401174:	be 41 16 40 00       	mov    $0x401641,%esi
  401179:	48 89 c7             	mov    %rax,%rdi
  40117c:	e8 9f fa ff ff       	callq  400c20 <_ZStlsISt11char_traitsIcEERSt13basic_ostreamIcT_ES5_PKc@plt>
  401181:	48 89 c2             	mov    %rax,%rdx
  401184:	48 8b 45 98          	mov    -0x68(%rbp),%rax
  401188:	48 89 c6             	mov    %rax,%rsi
  40118b:	48 89 d7             	mov    %rdx,%rdi
  40118e:	e8 ad fa ff ff       	callq  400c40 <_ZNSolsEPKv@plt>
  401193:	be 90 0c 40 00       	mov    $0x400c90,%esi
  401198:	48 89 c7             	mov    %rax,%rdi
  40119b:	e8 e0 fa ff ff       	callq  400c80 <_ZNSolsEPFRSoS_E@plt>
  std::cout << "p_int(uint64_t)=" << p_int << ",(void*)=" << (void*)p_int << std::endl;
  4011a0:	be 4b 16 40 00       	mov    $0x40164b,%esi
  4011a5:	bf e0 20 60 00       	mov    $0x6020e0,%edi
  4011aa:	e8 71 fa ff ff       	callq  400c20 <_ZStlsISt11char_traitsIcEERSt13basic_ostreamIcT_ES5_PKc@plt>
  4011af:	48 89 c2             	mov    %rax,%rdx
  4011b2:	48 8b 45 d8          	mov    -0x28(%rbp),%rax
  4011b6:	48 89 c6             	mov    %rax,%rsi
  4011b9:	48 89 d7             	mov    %rdx,%rdi
  4011bc:	e8 8f fa ff ff       	callq  400c50 <_ZNSolsEm@plt>
  4011c1:	be 41 16 40 00       	mov    $0x401641,%esi
  4011c6:	48 89 c7             	mov    %rax,%rdi
  4011c9:	e8 52 fa ff ff       	callq  400c20 <_ZStlsISt11char_traitsIcEERSt13basic_ostreamIcT_ES5_PKc@plt>
  4011ce:	48 89 c2             	mov    %rax,%rdx
  4011d1:	48 8b 45 d8          	mov    -0x28(%rbp),%rax
  4011d5:	48 89 c6             	mov    %rax,%rsi
  4011d8:	48 89 d7             	mov    %rdx,%rdi
  4011db:	e8 60 fa ff ff       	callq  400c40 <_ZNSolsEPKv@plt>
  4011e0:	be 90 0c 40 00       	mov    $0x400c90,%esi
  4011e5:	48 89 c7             	mov    %rax,%rdi
  4011e8:	e8 93 fa ff ff       	callq  400c80 <_ZNSolsEPFRSoS_E@plt>
  char *p_char = (char*)p_int;
  4011ed:	48 8b 45 d8          	mov    -0x28(%rbp),%rax
  4011f1:	48 89 45 d0          	mov    %rax,-0x30(%rbp)
  std::cout << "p_char=" << (void *)p_char << std::endl;
  4011f5:	be 5c 16 40 00       	mov    $0x40165c,%esi
  4011fa:	bf e0 20 60 00       	mov    $0x6020e0,%edi
  4011ff:	e8 1c fa ff ff       	callq  400c20 <_ZStlsISt11char_traitsIcEERSt13basic_ostreamIcT_ES5_PKc@plt>
  401204:	48 89 c2             	mov    %rax,%rdx
  401207:	48 8b 45 d0          	mov    -0x30(%rbp),%rax
  40120b:	48 89 c6             	mov    %rax,%rsi
  40120e:	48 89 d7             	mov    %rdx,%rdi
  401211:	e8 2a fa ff ff       	callq  400c40 <_ZNSolsEPKv@plt>
  401216:	be 90 0c 40 00       	mov    $0x400c90,%esi
  40121b:	48 89 c7             	mov    %rax,%rdi
  40121e:	e8 5d fa ff ff       	callq  400c80 <_ZNSolsEPFRSoS_E@plt>
  p_char[4] = '4';
  401223:	48 8b 45 d0          	mov    -0x30(%rbp),%rax
  401227:	48 83 c0 04          	add    $0x4,%rax
  40122b:	c6 00 34             	movb   $0x34,(%rax)
  p_char[5] = '5';
  40122e:	48 8b 45 d0          	mov    -0x30(%rbp),%rax
  401232:	48 83 c0 05          	add    $0x5,%rax
  401236:	c6 00 35             	movb   $0x35,(%rax)
  p_char[6] = '6';
  401239:	48 8b 45 d0          	mov    -0x30(%rbp),%rax
  40123d:	48 83 c0 06          	add    $0x6,%rax
  401241:	c6 00 36             	movb   $0x36,(%rax)
  p_char[7] = '7';
  401244:	48 8b 45 d0          	mov    -0x30(%rbp),%rax
  401248:	48 83 c0 07          	add    $0x7,%rax
  40124c:	c6 00 37             	movb   $0x37,(%rax)
  p_char[8] = '8';
  40124f:	48 8b 45 d0          	mov    -0x30(%rbp),%rax
  401253:	48 83 c0 08          	add    $0x8,%rax
  401257:	c6 00 38             	movb   $0x38,(%rax)
  for (int i = 3; i < 1000; i++) {
  40125a:	c7 45 ec 03 00 00 00 	movl   $0x3,-0x14(%rbp)
  401261:	81 7d ec e7 03 00 00 	cmpl   $0x3e7,-0x14(%rbp)
  401268:	7f 37                	jg     4012a1 <_Z5test2v+0x2e0>
    p_char[i] = ('a' + i) % 100;
  40126a:	8b 45 ec             	mov    -0x14(%rbp),%eax
  40126d:	8d 48 61             	lea    0x61(%rax),%ecx
  401270:	ba 1f 85 eb 51       	mov    $0x51eb851f,%edx
  401275:	89 c8                	mov    %ecx,%eax
  401277:	f7 ea                	imul   %edx
  401279:	c1 fa 05             	sar    $0x5,%edx
  40127c:	89 c8                	mov    %ecx,%eax
  40127e:	c1 f8 1f             	sar    $0x1f,%eax
  401281:	29 c2                	sub    %eax,%edx
  401283:	89 d0                	mov    %edx,%eax
  401285:	6b c0 64             	imul   $0x64,%eax,%eax
  401288:	29 c1                	sub    %eax,%ecx
  40128a:	89 c8                	mov    %ecx,%eax
  40128c:	8b 55 ec             	mov    -0x14(%rbp),%edx
  40128f:	48 63 ca             	movslq %edx,%rcx
  401292:	48 8b 55 d0          	mov    -0x30(%rbp),%rdx
  401296:	48 01 ca             	add    %rcx,%rdx
  401299:	88 02                	mov    %al,(%rdx)
  for (int i = 3; i < 1000; i++) {
  40129b:	83 45 ec 01          	addl   $0x1,-0x14(%rbp)
  40129f:	eb c0                	jmp    401261 <_Z5test2v+0x2a0>
  }

  std::cout << "p_char[8] addr=" << (void*)&(p_char[8]) << std::endl;
  4012a1:	be 64 16 40 00       	mov    $0x401664,%esi
  4012a6:	bf e0 20 60 00       	mov    $0x6020e0,%edi
  4012ab:	e8 70 f9 ff ff       	callq  400c20 <_ZStlsISt11char_traitsIcEERSt13basic_ostreamIcT_ES5_PKc@plt>
  4012b0:	48 89 c2             	mov    %rax,%rdx
  4012b3:	48 8b 45 d0          	mov    -0x30(%rbp),%rax
  4012b7:	48 83 c0 08          	add    $0x8,%rax
  4012bb:	48 89 c6             	mov    %rax,%rsi
  4012be:	48 89 d7             	mov    %rdx,%rdi
  4012c1:	e8 7a f9 ff ff       	callq  400c40 <_ZNSolsEPKv@plt>
  4012c6:	be 90 0c 40 00       	mov    $0x400c90,%esi
  4012cb:	48 89 c7             	mov    %rax,%rdi
  4012ce:	e8 ad f9 ff ff       	callq  400c80 <_ZNSolsEPFRSoS_E@plt>
  std::cout << "p=" << (void *)((char *)p + 16)
  4012d3:	be 25 16 40 00       	mov    $0x401625,%esi
  4012d8:	bf e0 20 60 00       	mov    $0x6020e0,%edi
  4012dd:	e8 3e f9 ff ff       	callq  400c20 <_ZStlsISt11char_traitsIcEERSt13basic_ostreamIcT_ES5_PKc@plt>
  4012e2:	48 89 c2             	mov    %rax,%rdx
  4012e5:	48 8b 45 e0          	mov    -0x20(%rbp),%rax
  4012e9:	48 83 c0 10          	add    $0x10,%rax
  4012ed:	48 89 c6             	mov    %rax,%rsi
  4012f0:	48 89 d7             	mov    %rdx,%rdi
  4012f3:	e8 48 f9 ff ff       	callq  400c40 <_ZNSolsEPKv@plt>
            << ",c=" << std::string(((char *)p_int), 8) << std::endl;
  4012f8:	be 74 16 40 00       	mov    $0x401674,%esi
  4012fd:	48 89 c7             	mov    %rax,%rdi
  401300:	e8 1b f9 ff ff       	callq  400c20 <_ZStlsISt11char_traitsIcEERSt13basic_ostreamIcT_ES5_PKc@plt>
  401305:	48 89 c3             	mov    %rax,%rbx
  401308:	48 8d 45 cf          	lea    -0x31(%rbp),%rax
  40130c:	48 89 c7             	mov    %rax,%rdi
  40130f:	e8 8c f9 ff ff       	callq  400ca0 <_ZNSaIcEC1Ev@plt>
  401314:	48 8b 75 d8          	mov    -0x28(%rbp),%rsi
  401318:	48 8d 55 cf          	lea    -0x31(%rbp),%rdx
  40131c:	48 8d 45 c0          	lea    -0x40(%rbp),%rax
  401320:	48 89 d1             	mov    %rdx,%rcx
  401323:	ba 08 00 00 00       	mov    $0x8,%edx
  401328:	48 89 c7             	mov    %rax,%rdi
  40132b:	e8 60 f8 ff ff       	callq  400b90 <_ZNSsC1EPKcmRKSaIcE@plt>
  401330:	48 8d 45 c0          	lea    -0x40(%rbp),%rax
  401334:	48 89 c6             	mov    %rax,%rsi
  401337:	48 89 df             	mov    %rbx,%rdi
  40133a:	e8 21 f9 ff ff       	callq  400c60 <_ZStlsIcSt11char_traitsIcESaIcEERSt13basic_ostreamIT_T0_ES7_RKSbIS4_S5_T1_E@plt>
  40133f:	be 90 0c 40 00       	mov    $0x400c90,%esi
  401344:	48 89 c7             	mov    %rax,%rdi
  401347:	e8 34 f9 ff ff       	callq  400c80 <_ZNSolsEPFRSoS_E@plt>
  40134c:	48 8d 45 c0          	lea    -0x40(%rbp),%rax
  401350:	48 89 c7             	mov    %rax,%rdi
  401353:	e8 d8 f8 ff ff       	callq  400c30 <_ZNSsD1Ev@plt>
  401358:	48 8d 45 cf          	lea    -0x31(%rbp),%rax
  40135c:	48 89 c7             	mov    %rax,%rdi
  40135f:	e8 0c f9 ff ff       	callq  400c70 <_ZNSaIcED1Ev@plt>
  std::cout << "p=" << (void*)((char*)p+24) <<  ",d=" << *(double*)((char*)p+24) << std::endl;
  401364:	be 25 16 40 00       	mov    $0x401625,%esi
  401369:	bf e0 20 60 00       	mov    $0x6020e0,%edi
  40136e:	e8 ad f8 ff ff       	callq  400c20 <_ZStlsISt11char_traitsIcEERSt13basic_ostreamIcT_ES5_PKc@plt>
  401373:	48 89 c2             	mov    %rax,%rdx
  401376:	48 8b 45 e0          	mov    -0x20(%rbp),%rax
  40137a:	48 83 c0 18          	add    $0x18,%rax
  40137e:	48 89 c6             	mov    %rax,%rsi
  401381:	48 89 d7             	mov    %rdx,%rdi
  401384:	e8 b7 f8 ff ff       	callq  400c40 <_ZNSolsEPKv@plt>
  401389:	be 78 16 40 00       	mov    $0x401678,%esi
  40138e:	48 89 c7             	mov    %rax,%rdi
  401391:	e8 8a f8 ff ff       	callq  400c20 <_ZStlsISt11char_traitsIcEERSt13basic_ostreamIcT_ES5_PKc@plt>
  401396:	48 89 c2             	mov    %rax,%rdx
  401399:	48 8b 45 e0          	mov    -0x20(%rbp),%rax
  40139d:	48 83 c0 18          	add    $0x18,%rax
  4013a1:	48 8b 00             	mov    (%rax),%rax
  4013a4:	48 89 45 88          	mov    %rax,-0x78(%rbp)
  4013a8:	f2 0f 10 45 88       	movsd  -0x78(%rbp),%xmm0
  4013ad:	48 89 d7             	mov    %rdx,%rdi
  4013b0:	e8 9b f7 ff ff       	callq  400b50 <_ZNSolsEd@plt>
  4013b5:	be 90 0c 40 00       	mov    $0x400c90,%esi
  4013ba:	48 89 c7             	mov    %rax,%rdi
  4013bd:	e8 be f8 ff ff       	callq  400c80 <_ZNSolsEPFRSoS_E@plt>
  T2 t2;
  4013c2:	48 8d 45 a0          	lea    -0x60(%rbp),%rax
  4013c6:	48 89 c7             	mov    %rax,%rdi
  4013c9:	e8 a8 00 00 00       	callq  401476 <_ZN2T2D1Ev>
}
  4013ce:	eb 3c                	jmp    40140c <_Z5test2v+0x44b>
  4013d0:	48 89 c3             	mov    %rax,%rbx
            << ",c=" << std::string(((char *)p_int), 8) << std::endl;
  4013d3:	48 8d 45 c0          	lea    -0x40(%rbp),%rax
  4013d7:	48 89 c7             	mov    %rax,%rdi
  4013da:	e8 51 f8 ff ff       	callq  400c30 <_ZNSsD1Ev@plt>
  4013df:	eb 03                	jmp    4013e4 <_Z5test2v+0x423>
  4013e1:	48 89 c3             	mov    %rax,%rbx
  4013e4:	48 8d 45 cf          	lea    -0x31(%rbp),%rax
  4013e8:	48 89 c7             	mov    %rax,%rdi
  4013eb:	e8 80 f8 ff ff       	callq  400c70 <_ZNSaIcED1Ev@plt>
  4013f0:	eb 03                	jmp    4013f5 <_Z5test2v+0x434>
  4013f2:	48 89 c3             	mov    %rax,%rbx
  T2 t2;
  4013f5:	48 8d 45 a0          	lea    -0x60(%rbp),%rax
  4013f9:	48 89 c7             	mov    %rax,%rdi
  4013fc:	e8 75 00 00 00       	callq  401476 <_ZN2T2D1Ev>
  401401:	48 89 d8             	mov    %rbx,%rax
  401404:	48 89 c7             	mov    %rax,%rdi
  401407:	e8 b4 f8 ff ff       	callq  400cc0 <_Unwind_Resume@plt>
}
  40140c:	48 83 c4 78          	add    $0x78,%rsp
  401410:	5b                   	pop    %rbx
  401411:	5d                   	pop    %rbp
  401412:	c3                   	retq   

0000000000401413 <main>:

int main () {
  401413:	55                   	push   %rbp
  401414:	48 89 e5             	mov    %rsp,%rbp
  // std::cout << "string sizeof =" << sizeof(std::string) << std::endl;
  test2();
  401417:	e8 a5 fb ff ff       	callq  400fc1 <_Z5test2v>
  return 0;
  40141c:	b8 00 00 00 00       	mov    $0x0,%eax
}
  401421:	5d                   	pop    %rbp
  401422:	c3                   	retq   

0000000000401423 <_Z41__static_initialization_and_destruction_0ii>:
  401423:	55                   	push   %rbp
  401424:	48 89 e5             	mov    %rsp,%rbp
  401427:	48 83 ec 10          	sub    $0x10,%rsp
  40142b:	89 7d fc             	mov    %edi,-0x4(%rbp)
  40142e:	89 75 f8             	mov    %esi,-0x8(%rbp)
  401431:	83 7d fc 01          	cmpl   $0x1,-0x4(%rbp)
  401435:	75 27                	jne    40145e <_Z41__static_initialization_and_destruction_0ii+0x3b>
  401437:	81 7d f8 ff ff 00 00 	cmpl   $0xffff,-0x8(%rbp)
  40143e:	75 1e                	jne    40145e <_Z41__static_initialization_and_destruction_0ii+0x3b>
  extern wostream wclog;	/// Linked to standard error (buffered)
#endif
  //@}

  // For construction of filebuffers for cout, cin, cerr, clog et. al.
  static ios_base::Init __ioinit;
  401440:	bf f2 21 60 00       	mov    $0x6021f2,%edi
  401445:	e8 66 f7 ff ff       	callq  400bb0 <_ZNSt8ios_base4InitC1Ev@plt>
  40144a:	ba a8 15 40 00       	mov    $0x4015a8,%edx
  40144f:	be f2 21 60 00       	mov    $0x6021f2,%esi
  401454:	bf 00 0c 40 00       	mov    $0x400c00,%edi
  401459:	e8 72 f7 ff ff       	callq  400bd0 <__cxa_atexit@plt>
  40145e:	90                   	nop
  40145f:	c9                   	leaveq 
  401460:	c3                   	retq   

0000000000401461 <_GLOBAL__sub_I__Z10print_addrm>:
  401461:	55                   	push   %rbp
  401462:	48 89 e5             	mov    %rsp,%rbp
  401465:	be ff ff 00 00       	mov    $0xffff,%esi
  40146a:	bf 01 00 00 00       	mov    $0x1,%edi
  40146f:	e8 af ff ff ff       	callq  401423 <_Z41__static_initialization_and_destruction_0ii>
  401474:	5d                   	pop    %rbp
  401475:	c3                   	retq   

0000000000401476 <_ZN2T2D1Ev>:
    ~T2() {
  401476:	55                   	push   %rbp
  401477:	48 89 e5             	mov    %rsp,%rbp
  40147a:	53                   	push   %rbx
  40147b:	48 83 ec 18          	sub    $0x18,%rsp
  40147f:	48 89 7d e8          	mov    %rdi,-0x18(%rbp)
      std::cout << "c=" << c << ",c.length=" << c.length() << std::endl;
  401483:	be fb 15 40 00       	mov    $0x4015fb,%esi
  401488:	bf e0 20 60 00       	mov    $0x6020e0,%edi
  40148d:	e8 8e f7 ff ff       	callq  400c20 <_ZStlsISt11char_traitsIcEERSt13basic_ostreamIcT_ES5_PKc@plt>
  401492:	48 89 c2             	mov    %rax,%rdx
  401495:	48 8b 45 e8          	mov    -0x18(%rbp),%rax
  401499:	48 83 c0 10          	add    $0x10,%rax
  40149d:	48 89 c6             	mov    %rax,%rsi
  4014a0:	48 89 d7             	mov    %rdx,%rdi
  4014a3:	e8 b8 f7 ff ff       	callq  400c60 <_ZStlsIcSt11char_traitsIcESaIcEERSt13basic_ostreamIT_T0_ES7_RKSbIS4_S5_T1_E@plt>
  4014a8:	be fe 15 40 00       	mov    $0x4015fe,%esi
  4014ad:	48 89 c7             	mov    %rax,%rdi
  4014b0:	e8 6b f7 ff ff       	callq  400c20 <_ZStlsISt11char_traitsIcEERSt13basic_ostreamIcT_ES5_PKc@plt>
  4014b5:	48 89 c3             	mov    %rax,%rbx
  4014b8:	48 8b 45 e8          	mov    -0x18(%rbp),%rax
  4014bc:	48 83 c0 10          	add    $0x10,%rax
  4014c0:	48 89 c7             	mov    %rax,%rdi
  4014c3:	e8 28 f7 ff ff       	callq  400bf0 <_ZNKSs6lengthEv@plt>
  4014c8:	48 89 c6             	mov    %rax,%rsi
  4014cb:	48 89 df             	mov    %rbx,%rdi
  4014ce:	e8 7d f7 ff ff       	callq  400c50 <_ZNSolsEm@plt>
  4014d3:	be 90 0c 40 00       	mov    $0x400c90,%esi
  4014d8:	48 89 c7             	mov    %rax,%rdi
  4014db:	e8 a0 f7 ff ff       	callq  400c80 <_ZNSolsEPFRSoS_E@plt>
    ~T2() {
  4014e0:	48 8b 45 e8          	mov    -0x18(%rbp),%rax
  4014e4:	48 83 c0 10          	add    $0x10,%rax
  4014e8:	48 89 c7             	mov    %rax,%rdi
  4014eb:	e8 40 f7 ff ff       	callq  400c30 <_ZNSsD1Ev@plt>
    }
  4014f0:	90                   	nop
  4014f1:	48 83 c4 18          	add    $0x18,%rsp
  4014f5:	5b                   	pop    %rbx
  4014f6:	5d                   	pop    %rbp
  4014f7:	c3                   	retq   

00000000004014f8 <_ZN2T2C1Ev>:
class T2 {
  4014f8:	55                   	push   %rbp
  4014f9:	48 89 e5             	mov    %rsp,%rbp
  4014fc:	48 83 ec 10          	sub    $0x10,%rsp
  401500:	48 89 7d f8          	mov    %rdi,-0x8(%rbp)
  401504:	48 8b 45 f8          	mov    -0x8(%rbp),%rax
  401508:	48 83 c0 10          	add    $0x10,%rax
  40150c:	48 89 c7             	mov    %rax,%rdi
  40150f:	e8 5c f6 ff ff       	callq  400b70 <_ZNSsC1Ev@plt>
  401514:	90                   	nop
  401515:	c9                   	leaveq 
  401516:	c3                   	retq   
  401517:	66 0f 1f 84 00 00 00 	nopw   0x0(%rax,%rax,1)
  40151e:	00 00 

0000000000401520 <__libc_csu_init>:
  401520:	41 57                	push   %r15
  401522:	41 89 ff             	mov    %edi,%r15d
  401525:	41 56                	push   %r14
  401527:	49 89 f6             	mov    %rsi,%r14
  40152a:	41 55                	push   %r13
  40152c:	49 89 d5             	mov    %rdx,%r13
  40152f:	41 54                	push   %r12
  401531:	4c 8d 25 a8 08 20 00 	lea    0x2008a8(%rip),%r12        # 601de0 <__frame_dummy_init_array_entry>
  401538:	55                   	push   %rbp
  401539:	48 8d 2d b0 08 20 00 	lea    0x2008b0(%rip),%rbp        # 601df0 <__init_array_end>
  401540:	53                   	push   %rbx
  401541:	4c 29 e5             	sub    %r12,%rbp
  401544:	31 db                	xor    %ebx,%ebx
  401546:	48 c1 fd 03          	sar    $0x3,%rbp
  40154a:	48 83 ec 08          	sub    $0x8,%rsp
  40154e:	e8 cd f5 ff ff       	callq  400b20 <_init>
  401553:	48 85 ed             	test   %rbp,%rbp
  401556:	74 1e                	je     401576 <__libc_csu_init+0x56>
  401558:	0f 1f 84 00 00 00 00 	nopl   0x0(%rax,%rax,1)
  40155f:	00 
  401560:	4c 89 ea             	mov    %r13,%rdx
  401563:	4c 89 f6             	mov    %r14,%rsi
  401566:	44 89 ff             	mov    %r15d,%edi
  401569:	41 ff 14 dc          	callq  *(%r12,%rbx,8)
  40156d:	48 83 c3 01          	add    $0x1,%rbx
  401571:	48 39 eb             	cmp    %rbp,%rbx
  401574:	75 ea                	jne    401560 <__libc_csu_init+0x40>
  401576:	48 83 c4 08          	add    $0x8,%rsp
  40157a:	5b                   	pop    %rbx
  40157b:	5d                   	pop    %rbp
  40157c:	41 5c                	pop    %r12
  40157e:	41 5d                	pop    %r13
  401580:	41 5e                	pop    %r14
  401582:	41 5f                	pop    %r15
  401584:	c3                   	retq   
  401585:	90                   	nop
  401586:	66 2e 0f 1f 84 00 00 	nopw   %cs:0x0(%rax,%rax,1)
  40158d:	00 00 00 

0000000000401590 <__libc_csu_fini>:
  401590:	f3 c3                	repz retq 

Disassembly of section .fini:

0000000000401594 <_fini>:
  401594:	48 83 ec 08          	sub    $0x8,%rsp
  401598:	48 83 c4 08          	add    $0x8,%rsp
  40159c:	c3                   	retq   
